target datalayout = "e-m:e-p270:32:32-p271:32:32-p272:64:64-i64:64-i128:128-f80:128-n8:16:32:64-S128"
target triple = "x86_64-pc-linux-gnu"

%struct.expert_field = type { i32, i32 }
%struct._packet_info = type { ptr, ptr, i32, i32, %struct.nstime_t, %struct.nstime_t, %struct.nstime_t, i8, ptr, ptr, ptr, ptr, %struct._address, %struct._address, %struct._address, %struct._address, %struct._address, %struct._address, i32, ptr, i8, [3 x i8], %struct.anon, i32, i32, i32, i32, ptr, i8, ptr, ptr, i16, i16, i32, i32, i16, i32, i32, ptr, ptr, ptr, i8, i8, i16, i16, i16, i32, i16, i16, ptr, ptr, ptr, ptr, ptr, i32, i32 }
%struct.nstime_t = type { i64, i32 }
%struct._address = type { i32, i32, ptr, ptr }
%struct.anon = type { i8, [3 x i8] }

@hf_s7comm_data_blockcontrol_file_ident = internal global i32 0, align 4
@hf_s7comm_data_blockcontrol_block_type = internal global i32 0, align 4
@hf_s7comm_data_blockcontrol_block_num = internal global i32 0, align 4
@hf_s7comm_data_blockcontrol_dest_filesys = internal global i32 0, align 4
@hf_s7comm_data_blockcontrol_filename_len = internal global i32 0, align 4
@hf_s7comm_data_blockcontrol_filename = internal global i32 0, align 4
@ei_s7comm_data_blockcontrol_block_num_invalid = internal global %struct.expert_field zeroinitializer, align 4
@ett_s7comm_plcfilename = internal global i32 0, align 4
@.str.2172 = private unnamed_addr constant [6 x i8] c" (%s)\00", align 1
@.str.2173 = private unnamed_addr constant [23 x i8] c"Unknown identifier: %c\00", align 1
@.str.2174 = private unnamed_addr constant [27 x i8] c"Unknown Block type: 0x%04x\00", align 1
@.str.2175 = private unnamed_addr constant [5 x i8] c" [%s\00", align 1
@.str.2176 = private unnamed_addr constant [14 x i8] c" -> Block:[%s\00", align 1
@.str.2177 = private unnamed_addr constant [4 x i8] c"%d]\00", align 1
@.str.2178 = private unnamed_addr constant [5 x i8] c"NaN]\00", align 1
@.str.2179 = private unnamed_addr constant [16 x i8] c"Unknown filesys\00", align 1
@.str.2180 = private unnamed_addr constant [11 x i8] c" File:[%s]\00", align 1
@blocktype_attribute1_names = internal constant [3 x { i32, [4 x i8], ptr }] [{ i32, [4 x i8], ptr } { i32 95, [4 x i8] zeroinitializer, ptr @.str.2181 }, { i32, [4 x i8], ptr } { i32 36, [4 x i8] zeroinitializer, ptr @.str.2182 }, { i32, [4 x i8], ptr } zeroinitializer], align 16

; Function Attrs: null_pointer_is_valid sspstrong uwtable
define internal i32 @s7comm_decode_plc_controls_filename(ptr noundef %0, ptr noundef %1, ptr noundef %2, i32 noundef %3) #0 {
  %5 = alloca ptr, align 8
  %6 = alloca ptr, align 8
  %7 = alloca ptr, align 8
  %8 = alloca i32, align 4
  %9 = alloca i8, align 1
  %10 = alloca ptr, align 8
  %11 = alloca i16, align 2
  %12 = alloca i8, align 1
  %13 = alloca ptr, align 8
  %14 = alloca ptr, align 8
  %15 = alloca ptr, align 8
  %16 = alloca i32, align 4
  %17 = alloca i8, align 1
  store ptr %0, ptr %5, align 8
  store ptr %1, ptr %6, align 8
  store ptr %2, ptr %7, align 8
  store i32 %3, ptr %8, align 4
  call void @llvm.lifetime.start.p0(i64 1, ptr %9) #8
  call void @llvm.lifetime.start.p0(i64 8, ptr %10) #8
  call void @llvm.lifetime.start.p0(i64 2, ptr %11) #8
  call void @llvm.lifetime.start.p0(i64 1, ptr %12) #8
  call void @llvm.lifetime.start.p0(i64 8, ptr %13) #8
  store ptr null, ptr %13, align 8
  call void @llvm.lifetime.start.p0(i64 8, ptr %14) #8
  store ptr null, ptr %14, align 8
  call void @llvm.lifetime.start.p0(i64 8, ptr %15) #8
  store ptr null, ptr %15, align 8
  %18 = load ptr, ptr %5, align 8
  %19 = load i32, ptr %8, align 4
  %20 = call zeroext i8 @tvb_get_uint8(ptr noundef %18, i32 noundef %19)
  store i8 %20, ptr %9, align 1
  %21 = load ptr, ptr %7, align 8
  %22 = load i32, ptr @hf_s7comm_data_blockcontrol_filename_len, align 4
  %23 = load ptr, ptr %5, align 8
  %24 = load i32, ptr %8, align 4
  %25 = load i8, ptr %9, align 1
  %26 = zext i8 %25 to i32
  %27 = call ptr @proto_tree_add_uint(ptr noundef %21, i32 noundef %22, ptr noundef %23, i32 noundef %24, i32 noundef 1, i32 noundef %26)
  %28 = load i32, ptr %8, align 4
  %29 = add i32 %28, 1
  store i32 %29, ptr %8, align 4
  %30 = load ptr, ptr %7, align 8
  %31 = load i32, ptr @hf_s7comm_data_blockcontrol_filename, align 4
  %32 = load ptr, ptr %5, align 8
  %33 = load i32, ptr %8, align 4
  %34 = load i8, ptr %9, align 1
  %35 = zext i8 %34 to i32
  %36 = call ptr @proto_tree_add_item(ptr noundef %30, i32 noundef %31, ptr noundef %32, i32 noundef %33, i32 noundef %35, i32 noundef 0)
  store ptr %36, ptr %13, align 8
  store i8 0, ptr %12, align 1
  %37 = load i8, ptr %9, align 1
  %38 = zext i8 %37 to i32
  %39 = icmp eq i32 %38, 9
  br i1 %39, label %40, label %140

40:                                               ; preds = %4
  %41 = load ptr, ptr %5, align 8
  %42 = load i32, ptr %8, align 4
  %43 = add i32 %42, 1
  %44 = call zeroext i16 @tvb_get_ntohs(ptr noundef %41, i32 noundef %43)
  store i16 %44, ptr %11, align 2
  %45 = load ptr, ptr %5, align 8
  %46 = load i32, ptr %8, align 4
  %47 = call zeroext i8 @tvb_get_uint8(ptr noundef %45, i32 noundef %46)
  %48 = zext i8 %47 to i32
  %49 = icmp eq i32 %48, 95
  br i1 %49, label %50, label %139

50:                                               ; preds = %40
  %51 = load i16, ptr %11, align 2
  %52 = zext i16 %51 to i32
  %53 = icmp sge i32 %52, 12344
  br i1 %53, label %54, label %139

54:                                               ; preds = %50
  %55 = load i16, ptr %11, align 2
  %56 = zext i16 %55 to i32
  %57 = icmp sle i32 %56, 12358
  br i1 %57, label %58, label %139

58:                                               ; preds = %54
  call void @llvm.lifetime.start.p0(i64 4, ptr %16) #8
  store i32 1, ptr %16, align 4
  call void @llvm.lifetime.start.p0(i64 1, ptr %17) #8
  store i8 1, ptr %12, align 1
  %59 = load ptr, ptr %13, align 8
  %60 = load i32, ptr @ett_s7comm_plcfilename, align 4
  %61 = call ptr @proto_item_add_subtree(ptr noundef %59, i32 noundef %60)
  store ptr %61, ptr %15, align 8
  %62 = load ptr, ptr %15, align 8
  %63 = load i32, ptr @hf_s7comm_data_blockcontrol_file_ident, align 4
  %64 = load ptr, ptr %5, align 8
  %65 = load i32, ptr %8, align 4
  %66 = call ptr @proto_tree_add_item(ptr noundef %62, i32 noundef %63, ptr noundef %64, i32 noundef %65, i32 noundef 1, i32 noundef 0)
  store ptr %66, ptr %14, align 8
  %67 = load ptr, ptr %14, align 8
  %68 = load ptr, ptr %5, align 8
  %69 = load i32, ptr %8, align 4
  %70 = call zeroext i8 @tvb_get_uint8(ptr noundef %68, i32 noundef %69)
  %71 = zext i8 %70 to i32
  %72 = call ptr @val_to_str(i32 noundef %71, ptr noundef @blocktype_attribute1_names, ptr noundef @.str.2173)
  call void (ptr, ptr, ...) @proto_item_append_text(ptr noundef %67, ptr noundef @.str.2172, ptr noundef %72)
  %73 = load i32, ptr %8, align 4
  %74 = add i32 %73, 1
  store i32 %74, ptr %8, align 4
  %75 = load ptr, ptr %15, align 8
  %76 = load i32, ptr @hf_s7comm_data_blockcontrol_block_type, align 4
  %77 = load ptr, ptr %5, align 8
  %78 = load i32, ptr %8, align 4
  %79 = call ptr @proto_tree_add_item(ptr noundef %75, i32 noundef %76, ptr noundef %77, i32 noundef %78, i32 noundef 2, i32 noundef 0)
  store ptr %79, ptr %14, align 8
  %80 = load ptr, ptr %14, align 8
  %81 = load i16, ptr %11, align 2
  %82 = zext i16 %81 to i32
  %83 = call ptr @val_to_str(i32 noundef %82, ptr noundef @blocktype_names, ptr noundef @.str.2174)
  call void (ptr, ptr, ...) @proto_item_append_text(ptr noundef %80, ptr noundef @.str.2172, ptr noundef %83)
  %84 = load i32, ptr %8, align 4
  %85 = add i32 %84, 2
  store i32 %85, ptr %8, align 4
  %86 = load ptr, ptr %15, align 8
  %87 = load i32, ptr @hf_s7comm_data_blockcontrol_block_num, align 4
  %88 = load ptr, ptr %5, align 8
  %89 = load i32, ptr %8, align 4
  %90 = load ptr, ptr %6, align 8
  %91 = getelementptr inbounds nuw %struct._packet_info, ptr %90, i32 0, i32 51
  %92 = load ptr, ptr %91, align 8
  %93 = call ptr @proto_tree_add_item_ret_string(ptr noundef %86, i32 noundef %87, ptr noundef %88, i32 noundef %89, i32 noundef 5, i32 noundef 0, ptr noundef %92, ptr noundef %10)
  %94 = load i32, ptr %8, align 4
  %95 = add i32 %94, 5
  store i32 %95, ptr %8, align 4
  %96 = load ptr, ptr %10, align 8
  %97 = call zeroext i1 @ws_strtoi32(ptr noundef %96, ptr noundef null, ptr noundef %16)
  %98 = zext i1 %97 to i8
  store i8 %98, ptr %17, align 1
  %99 = load ptr, ptr %15, align 8
  %100 = load i16, ptr %11, align 2
  %101 = zext i16 %100 to i32
  %102 = call ptr @val_to_str(i32 noundef %101, ptr noundef @blocktype_names, ptr noundef @.str.2174)
  call void (ptr, ptr, ...) @proto_item_append_text(ptr noundef %99, ptr noundef @.str.2175, ptr noundef %102)
  %103 = load ptr, ptr %6, align 8
  %104 = getelementptr inbounds nuw %struct._packet_info, ptr %103, i32 0, i32 1
  %105 = load ptr, ptr %104, align 8
  %106 = load i16, ptr %11, align 2
  %107 = zext i16 %106 to i32
  %108 = call ptr @val_to_str(i32 noundef %107, ptr noundef @blocktype_names, ptr noundef @.str.2174)
  call void (ptr, i32, ptr, ...) @col_append_fstr(ptr noundef %105, i32 noundef 25, ptr noundef @.str.2176, ptr noundef %108)
  %109 = load i8, ptr %17, align 1, !range !6, !noundef !7
  %110 = trunc i8 %109 to i1
  br i1 %110, label %111, label %118

111:                                              ; preds = %58
  %112 = load ptr, ptr %15, align 8
  %113 = load i32, ptr %16, align 4
  call void (ptr, ptr, ...) @proto_item_append_text(ptr noundef %112, ptr noundef @.str.2177, i32 noundef %113)
  %114 = load ptr, ptr %6, align 8
  %115 = getelementptr inbounds nuw %struct._packet_info, ptr %114, i32 0, i32 1
  %116 = load ptr, ptr %115, align 8
  %117 = load i32, ptr %16, align 4
  call void (ptr, i32, ptr, ...) @col_append_fstr(ptr noundef %116, i32 noundef 25, ptr noundef @.str.2177, i32 noundef %117)
  br label %126

118:                                              ; preds = %58
  %119 = load ptr, ptr %6, align 8
  %120 = load ptr, ptr %15, align 8
  %121 = call ptr @expert_add_info(ptr noundef %119, ptr noundef %120, ptr noundef @ei_s7comm_data_blockcontrol_block_num_invalid)
  %122 = load ptr, ptr %15, align 8
  call void (ptr, ptr, ...) @proto_item_append_text(ptr noundef %122, ptr noundef @.str.2178)
  %123 = load ptr, ptr %6, align 8
  %124 = getelementptr inbounds nuw %struct._packet_info, ptr %123, i32 0, i32 1
  %125 = load ptr, ptr %124, align 8
  call void @col_append_str(ptr noundef %125, i32 noundef 25, ptr noundef @.str.2178)
  br label %126

126:                                              ; preds = %118, %111
  %127 = load ptr, ptr %15, align 8
  %128 = load i32, ptr @hf_s7comm_data_blockcontrol_dest_filesys, align 4
  %129 = load ptr, ptr %5, align 8
  %130 = load i32, ptr %8, align 4
  %131 = call ptr @proto_tree_add_item(ptr noundef %127, i32 noundef %128, ptr noundef %129, i32 noundef %130, i32 noundef 1, i32 noundef 0)
  store ptr %131, ptr %14, align 8
  %132 = load ptr, ptr %14, align 8
  %133 = load ptr, ptr %5, align 8
  %134 = load i32, ptr %8, align 4
  %135 = call zeroext i8 @tvb_get_uint8(ptr noundef %133, i32 noundef %134)
  %136 = call ptr @char_val_to_str(i8 noundef signext %135, ptr noundef @blocktype_attribute2_names, ptr noundef @.str.2179)
  call void (ptr, ptr, ...) @proto_item_append_text(ptr noundef %132, ptr noundef @.str.2172, ptr noundef %136)
  %137 = load i32, ptr %8, align 4
  %138 = add i32 %137, 1
  store i32 %138, ptr %8, align 4
  call void @llvm.lifetime.end.p0(i64 1, ptr %17) #8
  call void @llvm.lifetime.end.p0(i64 4, ptr %16) #8
  br label %139

139:                                              ; preds = %126, %54, %50, %40
  br label %140

140:                                              ; preds = %139, %4
  %141 = load i8, ptr %12, align 1, !range !6, !noundef !7
  %142 = trunc i8 %141 to i1
  %143 = zext i1 %142 to i32
  %144 = icmp eq i32 %143, 0
  br i1 %144, label %145, label %162

145:                                              ; preds = %140
  %146 = load ptr, ptr %6, align 8
  %147 = getelementptr inbounds nuw %struct._packet_info, ptr %146, i32 0, i32 51
  %148 = load ptr, ptr %147, align 8
  %149 = load ptr, ptr %5, align 8
  %150 = load i32, ptr %8, align 4
  %151 = load i8, ptr %9, align 1
  %152 = zext i8 %151 to i32
  %153 = call ptr @tvb_get_string_enc(ptr noundef %148, ptr noundef %149, i32 noundef %150, i32 noundef %152, i32 noundef 0)
  store ptr %153, ptr %10, align 8
  %154 = load ptr, ptr %6, align 8
  %155 = getelementptr inbounds nuw %struct._packet_info, ptr %154, i32 0, i32 1
  %156 = load ptr, ptr %155, align 8
  %157 = load ptr, ptr %10, align 8
  call void (ptr, i32, ptr, ...) @col_append_fstr(ptr noundef %156, i32 noundef 25, ptr noundef @.str.2180, ptr noundef %157)
  %158 = load i8, ptr %9, align 1
  %159 = zext i8 %158 to i32
  %160 = load i32, ptr %8, align 4
  %161 = add i32 %160, %159
  store i32 %161, ptr %8, align 4
  br label %162

162:                                              ; preds = %145, %140
  %163 = load i32, ptr %8, align 4
  call void @llvm.lifetime.end.p0(i64 8, ptr %15) #8
  call void @llvm.lifetime.end.p0(i64 8, ptr %14) #8
  call void @llvm.lifetime.end.p0(i64 8, ptr %13) #8
  call void @llvm.lifetime.end.p0(i64 1, ptr %12) #8
  call void @llvm.lifetime.end.p0(i64 2, ptr %11) #8
  call void @llvm.lifetime.end.p0(i64 8, ptr %10) #8
  call void @llvm.lifetime.end.p0(i64 1, ptr %9) #8
  ret i32 %163
}