; Function Attrs: null_pointer_is_valid sspstrong uwtable
define internal fastcc range(i32 19, 277) i32 @s7comm_decode_plc_controls_filename(ptr noundef %0, ptr noundef %1, ptr noundef %2, i32 noundef range(i32 18, 21) %3) unnamed_addr #0 {
  %5 = alloca ptr, align 8
  %6 = alloca i32, align 4
  call void @llvm.lifetime.start.p0(i64 8, ptr nonnull %5) #8
  %7 = tail call zeroext i8 @tvb_get_uint8(ptr noundef %0, i32 noundef %3)
  %8 = load i32, ptr @hf_s7comm_data_blockcontrol_filename_len, align 4
  %9 = zext i8 %7 to i32
  %10 = tail call ptr @proto_tree_add_uint(ptr noundef %2, i32 noundef %8, ptr noundef %0, i32 noundef %3, i32 noundef 1, i32 noundef %9)
  %11 = add nuw nsw i32 %3, 1
  %12 = load i32, ptr @hf_s7comm_data_blockcontrol_filename, align 4
  %13 = tail call ptr @proto_tree_add_item(ptr noundef %2, i32 noundef %12, ptr noundef %0, i32 noundef %11, i32 noundef %9, i32 noundef 0)
  %14 = icmp eq i8 %7, 9
  br i1 %14, label %15, label %59

15:                                               ; preds = %4
  %16 = add nuw nsw i32 %3, 2
  %17 = tail call zeroext i16 @tvb_get_ntohs(ptr noundef %0, i32 noundef %16)
  %18 = tail call zeroext i8 @tvb_get_uint8(ptr noundef %0, i32 noundef %11)
  %19 = icmp eq i8 %18, 95
  %20 = add i16 %17, -12344
  %21 = icmp ult i16 %20, 15
  %or.cond5 = select i1 %19, i1 %21, i1 false
  br i1 %or.cond5, label %22, label %59

22:                                               ; preds = %15
  %23 = zext nneg i16 %17 to i32
  call void @llvm.lifetime.start.p0(i64 4, ptr nonnull %6) #8
  store i32 1, ptr %6, align 4
  %24 = load i32, ptr @ett_s7comm_plcfilename, align 4
  %25 = tail call ptr @proto_item_add_subtree(ptr noundef %13, i32 noundef %24)
  %26 = load i32, ptr @hf_s7comm_data_blockcontrol_file_ident, align 4
  %27 = tail call ptr @proto_tree_add_item(ptr noundef %25, i32 noundef %26, ptr noundef %0, i32 noundef %11, i32 noundef 1, i32 noundef 0)
  %28 = tail call zeroext i8 @tvb_get_uint8(ptr noundef %0, i32 noundef %11)
  %29 = zext i8 %28 to i32
  %30 = tail call ptr @val_to_str(i32 noundef %29, ptr noundef nonnull @blocktype_attribute1_names, ptr noundef nonnull @.str.2173)
  tail call void (ptr, ptr, ...) @proto_item_append_text(ptr noundef %27, ptr noundef nonnull @.str.2172, ptr noundef %30)
  %31 = load i32, ptr @hf_s7comm_data_blockcontrol_block_type, align 4
  %32 = tail call ptr @proto_tree_add_item(ptr noundef %25, i32 noundef %31, ptr noundef %0, i32 noundef %16, i32 noundef 2, i32 noundef 0)
  %33 = tail call ptr @val_to_str(i32 noundef %23, ptr noundef nonnull @blocktype_names, ptr noundef nonnull @.str.2174)
  tail call void (ptr, ptr, ...) @proto_item_append_text(ptr noundef %32, ptr noundef nonnull @.str.2172, ptr noundef %33)
  %34 = add nuw nsw i32 %3, 4
  %35 = load i32, ptr @hf_s7comm_data_blockcontrol_block_num, align 4
  %36 = getelementptr inbounds nuw i8, ptr %1, i64 408
  %37 = load ptr, ptr %36, align 8
  %38 = call ptr @proto_tree_add_item_ret_string(ptr noundef %25, i32 noundef %35, ptr noundef %0, i32 noundef %34, i32 noundef 5, i32 noundef 0, ptr noundef %37, ptr noundef nonnull %5)
  %39 = add nuw nsw i32 %3, 9
  %40 = load ptr, ptr %5, align 8
  %41 = call zeroext i1 @ws_strtoi32(ptr noundef %40, ptr noundef null, ptr noundef nonnull %6)
  %42 = call ptr @val_to_str(i32 noundef %23, ptr noundef nonnull @blocktype_names, ptr noundef nonnull @.str.2174)
  call void (ptr, ptr, ...) @proto_item_append_text(ptr noundef %25, ptr noundef nonnull @.str.2175, ptr noundef %42)
  %43 = getelementptr inbounds nuw i8, ptr %1, i64 8
  %44 = load ptr, ptr %43, align 8
  %45 = call ptr @val_to_str(i32 noundef %23, ptr noundef nonnull @blocktype_names, ptr noundef nonnull @.str.2174)
  call void (ptr, i32, ptr, ...) @col_append_fstr(ptr noundef %44, i32 noundef 25, ptr noundef nonnull @.str.2176, ptr noundef %45)
  br i1 %41, label %46, label %50

46:                                               ; preds = %22
  %47 = load i32, ptr %6, align 4
  call void (ptr, ptr, ...) @proto_item_append_text(ptr noundef %25, ptr noundef nonnull @.str.2177, i32 noundef %47)
  %48 = load ptr, ptr %43, align 8
  %49 = load i32, ptr %6, align 4
  call void (ptr, i32, ptr, ...) @col_append_fstr(ptr noundef %48, i32 noundef 25, ptr noundef nonnull @.str.2177, i32 noundef %49)
  br label %53

50:                                               ; preds = %22
  %51 = call ptr @expert_add_info(ptr noundef %1, ptr noundef %25, ptr noundef nonnull @ei_s7comm_data_blockcontrol_block_num_invalid)
  call void (ptr, ptr, ...) @proto_item_append_text(ptr noundef %25, ptr noundef nonnull @.str.2178)
  %52 = load ptr, ptr %43, align 8
  call void @col_append_str(ptr noundef %52, i32 noundef 25, ptr noundef nonnull @.str.2178)
  br label %53

53:                                               ; preds = %46, %50
  %54 = load i32, ptr @hf_s7comm_data_blockcontrol_dest_filesys, align 4
  %55 = call ptr @proto_tree_add_item(ptr noundef %25, i32 noundef %54, ptr noundef %0, i32 noundef %39, i32 noundef 1, i32 noundef 0)
  %56 = call zeroext i8 @tvb_get_uint8(ptr noundef %0, i32 noundef %39)
  %57 = call ptr @char_val_to_str(i8 noundef signext %56, ptr noundef nonnull @blocktype_attribute2_names, ptr noundef nonnull @.str.2179)
  call void (ptr, ptr, ...) @proto_item_append_text(ptr noundef %55, ptr noundef nonnull @.str.2172, ptr noundef %57)
  %58 = add nuw nsw i32 %3, 10
  call void @llvm.lifetime.end.p0(i64 4, ptr nonnull %6) #8
  br label %66

59:                                               ; preds = %15, %4
  %60 = getelementptr inbounds nuw i8, ptr %1, i64 408
  %61 = load ptr, ptr %60, align 8
  %62 = tail call ptr @tvb_get_string_enc(ptr noundef %61, ptr noundef %0, i32 noundef %11, i32 noundef %9, i32 noundef 0)
  %63 = getelementptr inbounds nuw i8, ptr %1, i64 8
  %64 = load ptr, ptr %63, align 8
  tail call void (ptr, i32, ptr, ...) @col_append_fstr(ptr noundef %64, i32 noundef 25, ptr noundef nonnull @.str.2180, ptr noundef %62)
  %65 = add nuw nsw i32 %11, %9
  br label %66

66:                                               ; preds = %53, %59
  %.1 = phi i32 [ %65, %59 ], [ %58, %53 ]
  call void @llvm.lifetime.end.p0(i64 8, ptr nonnull %5) #8
  ret i32 %.1
}